; Function Attrs: mustprogress uwtable
define hidden noundef ptr @_Z17mk_list_assoc_appR11ast_manageriijPKP4expr(ptr noundef nonnull align 8 dereferenceable(976) %0, i32 noundef %1, i32 noundef %2, i32 noundef %3, ptr noundef %4) local_unnamed_addr #3 {
  %6 = alloca [2 x ptr], align 16
  %7 = alloca [2 x ptr], align 16
  %8 = alloca [2 x ptr], align 16
  %9 = tail call noundef ptr @_ZN11ast_manager12mk_func_declEiijPK9parameterjPKP4exprP4sort(ptr noundef nonnull align 8 dereferenceable(976) %0, i32 noundef %1, i32 noundef %2, i32 noundef 0, ptr noundef null, i32 noundef %3, ptr noundef %4, ptr noundef null)
  %10 = icmp ugt i32 %3, 2
  br i1 %10, label %.lr.ph.i, label %27

.lr.ph.i:                                         ; preds = %5
  %11 = add i32 %3, -1
  %12 = add i32 %3, -2
  %13 = zext i32 %12 to i64
  %14 = getelementptr inbounds nuw ptr, ptr %4, i64 %13
  %15 = load ptr, ptr %14, align 8, !tbaa !3
  %16 = zext i32 %11 to i64
  %17 = getelementptr inbounds nuw ptr, ptr %4, i64 %16
  %18 = load ptr, ptr %17, align 8, !tbaa !3
  call void @llvm.lifetime.start.p0(i64 16, ptr nonnull %8) #19
  store ptr %15, ptr %8, align 16, !tbaa !3
  %19 = getelementptr inbounds nuw i8, ptr %8, i64 8
  store ptr %18, ptr %19, align 8, !tbaa !3
  %20 = call noundef ptr @_ZN11ast_manager6mk_appEP9func_decljPKP4expr(ptr noundef nonnull align 8 dereferenceable(976) %0, ptr noundef %9, i32 noundef 2, ptr noundef nonnull %8)
  call void @llvm.lifetime.end.p0(i64 16, ptr nonnull %8) #19
  %21 = getelementptr inbounds nuw i8, ptr %7, i64 8
  br label %22

22:                                               ; preds = %22, %.lr.ph.i
  %indvars.iv.i = phi i64 [ %13, %.lr.ph.i ], [ %23, %22 ]
  %.026.i = phi ptr [ %20, %.lr.ph.i ], [ %26, %22 ]
  %23 = add nsw i64 %indvars.iv.i, -1
  %24 = getelementptr inbounds nuw ptr, ptr %4, i64 %23
  %25 = load ptr, ptr %24, align 8, !tbaa !3
  call void @llvm.lifetime.start.p0(i64 16, ptr nonnull %7) #19
  store ptr %25, ptr %7, align 16, !tbaa !3
  store ptr %.026.i, ptr %21, align 8, !tbaa !3
  %26 = call noundef ptr @_ZN11ast_manager6mk_appEP9func_decljPKP4expr(ptr noundef nonnull align 8 dereferenceable(976) %0, ptr noundef %9, i32 noundef 2, ptr noundef nonnull %7)
  call void @llvm.lifetime.end.p0(i64 16, ptr nonnull %7) #19
  %.not.wide.i = icmp eq i64 %23, 0
  br i1 %.not.wide.i, label %_Z17mk_list_assoc_appR11ast_managerP9func_decljPKP4expr.exit, label %22, !llvm.loop !8

27:                                               ; preds = %5
  %28 = load ptr, ptr %4, align 8, !tbaa !3
  %29 = getelementptr inbounds nuw i8, ptr %4, i64 8
  %30 = load ptr, ptr %29, align 8, !tbaa !3
  call void @llvm.lifetime.start.p0(i64 16, ptr nonnull %6) #19
  store ptr %28, ptr %6, align 16, !tbaa !3
  %31 = getelementptr inbounds nuw i8, ptr %6, i64 8
  store ptr %30, ptr %31, align 8, !tbaa !3
  %32 = call noundef ptr @_ZN11ast_manager6mk_appEP9func_decljPKP4expr(ptr noundef nonnull align 8 dereferenceable(976) %0, ptr noundef %9, i32 noundef 2, ptr noundef nonnull %6)
  call void @llvm.lifetime.end.p0(i64 16, ptr nonnull %6) #19
  br label %_Z17mk_list_assoc_appR11ast_managerP9func_decljPKP4expr.exit

_Z17mk_list_assoc_appR11ast_managerP9func_decljPKP4expr.exit: ; preds = %22, %27
  %.022.i = phi ptr [ %32, %27 ], [ %26, %22 ]
  ret ptr %.022.i
}